GAS LISTING /tmp/ccXDrAIO.s 			page 1


   1              		.file	"Scheduler.cpp"
   2              		.option pic
   3              		.option norelax
   4              		.text
   5              	.Ltext0:
   6              		.align	2
   8              	_Z41__static_initialization_and_destruction_0ii:
   9              	.LFB41:
  10              		.file 1 "src/Scheduler.cpp"
   1:src/Scheduler.cpp **** #include "../h/Scheduler.hpp"
   2:src/Scheduler.cpp **** 
   3:src/Scheduler.cpp **** List<PCB> Scheduler::readyQueue;
   4:src/Scheduler.cpp **** 
   5:src/Scheduler.cpp **** PCB *Scheduler::get(){
   6:src/Scheduler.cpp ****     return readyQueue.removeFirst();
   7:src/Scheduler.cpp **** }
   8:src/Scheduler.cpp **** 
   9:src/Scheduler.cpp **** void Scheduler::put(PCB *pcb){
  10:src/Scheduler.cpp ****     readyQueue.addLast(pcb);
  11:src/Scheduler.cpp **** }...
  11              		.loc 1 11 1
  12              		.cfi_startproc
  13              	.LVL0:
  14 0000 130101FF 		addi	sp,sp,-16
  15              		.cfi_def_cfa_offset 16
  16 0004 23348100 		sd	s0,8(sp)
  17              		.cfi_offset 8, -8
  18 0008 13040101 		addi	s0,sp,16
  19              		.cfi_def_cfa 8, 0
  20              		.loc 1 11 1 is_stmt 0
  21 000c 93071000 		li	a5,1
  22 0010 6308F500 		beq	a0,a5,.L4
  23              	.L1:
  24 0014 03348100 		ld	s0,8(sp)
  25              		.cfi_remember_state
  26              		.cfi_restore 8
  27              		.cfi_def_cfa 2, 16
  28 0018 13010101 		addi	sp,sp,16
  29              		.cfi_def_cfa_offset 0
  30 001c 67800000 		jr	ra
  31              	.L4:
  32              		.cfi_restore_state
  33              		.loc 1 11 1 discriminator 1
  34 0020 B7070100 		li	a5,65536
  35 0024 9387F7FF 		addi	a5,a5,-1
  36 0028 E396F5FE 		bne	a1,a5,.L1
  37              	.LVL1:
  38              	.LBB12:
  39              	.LBB13:
  40              	.LBB14:
  41              		.file 2 "src/../h/../h/List.hpp"
   1:src/../h/../h/List.hpp **** #ifndef PROJECT_BASE_V1_1_LIST_HPP
   2:src/../h/../h/List.hpp **** #define PROJECT_BASE_V1_1_LIST_HPP
   3:src/../h/../h/List.hpp **** 
   4:src/../h/../h/List.hpp **** #include "../h/PCB.hpp"
   5:src/../h/../h/List.hpp **** #include "../lib/console.h"
   6:src/../h/../h/List.hpp **** 
GAS LISTING /tmp/ccXDrAIO.s 			page 2


   7:src/../h/../h/List.hpp **** template <typename T>
   8:src/../h/../h/List.hpp **** class List {
   9:src/../h/../h/List.hpp **** 
  10:src/../h/../h/List.hpp **** private:
  11:src/../h/../h/List.hpp ****     struct Elem {
  12:src/../h/../h/List.hpp ****         T* data;
  13:src/../h/../h/List.hpp ****         Elem* next;
  14:src/../h/../h/List.hpp **** 
  15:src/../h/../h/List.hpp ****         static void *operator new(size_t n) {
  16:src/../h/../h/List.hpp ****             uint64 numOfBlocks = (n + sizeof(void*) + sizeof(uint64)) / MEM_BLOCK_SIZE;
  17:src/../h/../h/List.hpp ****             if((n + sizeof(void*) + sizeof(uint64)) % MEM_BLOCK_SIZE > 0) numOfBlocks++;
  18:src/../h/../h/List.hpp ****             return MemoryAllocator::allocateMEM(numOfBlocks);
  19:src/../h/../h/List.hpp ****         }
  20:src/../h/../h/List.hpp **** 
  21:src/../h/../h/List.hpp ****         static void *operator new[](size_t n) {
  22:src/../h/../h/List.hpp ****             uint64 numOfBlocks = (n + sizeof(void*) + sizeof(uint64)) / MEM_BLOCK_SIZE;
  23:src/../h/../h/List.hpp ****             if((n + sizeof(void*) + sizeof(uint64)) % MEM_BLOCK_SIZE > 0) numOfBlocks++;
  24:src/../h/../h/List.hpp ****             return MemoryAllocator::allocateMEM(numOfBlocks);
  25:src/../h/../h/List.hpp ****         }
  26:src/../h/../h/List.hpp **** 
  27:src/../h/../h/List.hpp ****         static void operator delete(void *p) {
  28:src/../h/../h/List.hpp ****             MemoryAllocator::deallocateMEM(p);
  29:src/../h/../h/List.hpp ****         }
  30:src/../h/../h/List.hpp **** 
  31:src/../h/../h/List.hpp ****         static void operator delete[](void *p) {
  32:src/../h/../h/List.hpp ****             MemoryAllocator::deallocateMEM(p);
  33:src/../h/../h/List.hpp ****         }
  34:src/../h/../h/List.hpp **** 
  35:src/../h/../h/List.hpp ****         Elem(T* data, Elem *next) : data(data), next(next) {}
  36:src/../h/../h/List.hpp ****     };
  37:src/../h/../h/List.hpp **** 
  38:src/../h/../h/List.hpp ****     Elem *head, *tail;
  39:src/../h/../h/List.hpp ****     int length;
  40:src/../h/../h/List.hpp **** 
  41:src/../h/../h/List.hpp **** public:
  42:src/../h/../h/List.hpp **** 
  43:src/../h/../h/List.hpp ****     static void *operator new(size_t n) {
  44:src/../h/../h/List.hpp ****         uint64 numOfBlocks = (n + sizeof(void*) + sizeof(uint64)) / MEM_BLOCK_SIZE;
  45:src/../h/../h/List.hpp ****         if((n + sizeof(void*) + sizeof(uint64)) % MEM_BLOCK_SIZE > 0) numOfBlocks++;
  46:src/../h/../h/List.hpp ****         return MemoryAllocator::allocateMEM(numOfBlocks);
  47:src/../h/../h/List.hpp ****     }
  48:src/../h/../h/List.hpp **** 
  49:src/../h/../h/List.hpp ****     static void *operator new[](size_t n) {
  50:src/../h/../h/List.hpp ****         uint64 numOfBlocks = (n + sizeof(void*) + sizeof(uint64)) / MEM_BLOCK_SIZE;
  51:src/../h/../h/List.hpp ****         if((n + sizeof(void*) + sizeof(uint64)) % MEM_BLOCK_SIZE > 0) numOfBlocks++;
  52:src/../h/../h/List.hpp ****         return MemoryAllocator::allocateMEM(numOfBlocks);
  53:src/../h/../h/List.hpp ****     }
  54:src/../h/../h/List.hpp **** 
  55:src/../h/../h/List.hpp ****     static void operator delete(void *p) {
  56:src/../h/../h/List.hpp ****         MemoryAllocator::deallocateMEM(p);
  57:src/../h/../h/List.hpp ****     }
  58:src/../h/../h/List.hpp **** 
  59:src/../h/../h/List.hpp ****     static void operator delete[](void *p) {
  60:src/../h/../h/List.hpp ****         MemoryAllocator::deallocateMEM(p);
  61:src/../h/../h/List.hpp ****     }
  62:src/../h/../h/List.hpp **** 
  63:src/../h/../h/List.hpp ****     List() : head(0), tail(0), length(0) {}
GAS LISTING /tmp/ccXDrAIO.s 			page 3


  42              		.loc 2 63 40
  43 002c 97070000 		lla	a5,.LANCHOR0
  43      93870700 
  44 0034 23B00700 		sd	zero,0(a5)
  45 0038 23B40700 		sd	zero,8(a5)
  46 003c 23A80700 		sw	zero,16(a5)
  47              	.LVL2:
  48              	.LBE14:
  49              	.LBE13:
  50              	.LBE12:
  51              		.loc 1 11 1
  52 0040 6FF05FFD 		j	.L1
  53              		.cfi_endproc
  54              	.LFE41:
  56              		.align	2
  57              		.globl	_ZN9Scheduler3getEv
  59              	_ZN9Scheduler3getEv:
  60              	.LFB29:
   5:src/Scheduler.cpp **** PCB *Scheduler::get(){
  61              		.loc 1 5 22 is_stmt 1
  62              		.cfi_startproc
  63 0044 130101FE 		addi	sp,sp,-32
  64              		.cfi_def_cfa_offset 32
  65 0048 233C1100 		sd	ra,24(sp)
  66 004c 23388100 		sd	s0,16(sp)
  67 0050 23349100 		sd	s1,8(sp)
  68              		.cfi_offset 1, -8
  69              		.cfi_offset 8, -16
  70              		.cfi_offset 9, -24
  71 0054 13040102 		addi	s0,sp,32
  72              		.cfi_def_cfa 8, 0
   6:src/Scheduler.cpp ****     return readyQueue.removeFirst();
  73              		.loc 1 6 5
  74              	.LVL3:
  75              	.LBB19:
  76              	.LBB20:
  64:src/../h/../h/List.hpp ****     List(const List<T> &) = delete;
  65:src/../h/../h/List.hpp ****     List<T> &operator=(const List<T>&) = delete;
  66:src/../h/../h/List.hpp **** 
  67:src/../h/../h/List.hpp ****     void addFirst(T * data){
  68:src/../h/../h/List.hpp ****         Elem *elem = new Elem(data, head);
  69:src/../h/../h/List.hpp ****         head = elem;
  70:src/../h/../h/List.hpp ****         if(!tail) tail = head;
  71:src/../h/../h/List.hpp ****         length++;
  72:src/../h/../h/List.hpp ****     }
  73:src/../h/../h/List.hpp **** 
  74:src/../h/../h/List.hpp ****     void addLast(T* data) {
  75:src/../h/../h/List.hpp ****         Elem* elem = new Elem(data, 0);
  76:src/../h/../h/List.hpp ****         if(tail){
  77:src/../h/../h/List.hpp ****             tail->next = elem;
  78:src/../h/../h/List.hpp ****             tail = elem;
  79:src/../h/../h/List.hpp ****         } else {
  80:src/../h/../h/List.hpp ****             head = tail = elem;
  81:src/../h/../h/List.hpp ****         }
  82:src/../h/../h/List.hpp ****         length++;
  83:src/../h/../h/List.hpp ****     }
  84:src/../h/../h/List.hpp **** 
GAS LISTING /tmp/ccXDrAIO.s 			page 4


  85:src/../h/../h/List.hpp ****     T *removeFirst() {
  86:src/../h/../h/List.hpp ****         if(!head) return 0;
  77              		.loc 2 86 13 is_stmt 0
  78 0058 17050000 		ld	a0,.LANCHOR0
  78      03350500 
  79              		.loc 2 86 9
  80 0060 630C0504 		beqz	a0,.L8
  81              	.LVL4:
  87:src/../h/../h/List.hpp ****         Elem* elem = head;
  88:src/../h/../h/List.hpp ****         head = head->next;
  82              		.loc 2 88 22
  83 0064 83378500 		ld	a5,8(a0)
  84              		.loc 2 88 9
  85 0068 17070000 		sd	a5,.LANCHOR0,a4
  85      2330F700 
  89:src/../h/../h/List.hpp ****         if(!head) {
  86              		.loc 2 89 9
  87 0070 638E0702 		beqz	a5,.L10
  88              	.L7:
  90:src/../h/../h/List.hpp ****             tail = 0;
  91:src/../h/../h/List.hpp ****         }
  92:src/../h/../h/List.hpp ****         T* ret = elem->data;
  89              		.loc 2 92 12
  90 0074 83340500 		ld	s1,0(a0)
  91              	.LVL5:
  92              	.LBB21:
  93              	.LBB22:
  28:src/../h/../h/List.hpp ****         }
  94              		.loc 2 28 43
  95 0078 97000000 		call	_ZN15MemoryAllocator13deallocateMEMEPv@plt
  95      E7800000 
  96              	.LVL6:
  97              	.LBE22:
  98              	.LBE21:
  93:src/../h/../h/List.hpp ****         delete elem;
  94:src/../h/../h/List.hpp ****         length--;
  99              		.loc 2 94 9
 100 0080 17070000 		lla	a4,.LANCHOR0
 100      13070700 
 101 0088 83270701 		lw	a5,16(a4)
 102 008c 9B87F7FF 		addiw	a5,a5,-1
 103 0090 2328F700 		sw	a5,16(a4)
 104              	.LVL7:
 105              	.L5:
 106              	.LBE20:
 107              	.LBE19:
   7:src/Scheduler.cpp **** }
 108              		.loc 1 7 1
 109 0094 13850400 		mv	a0,s1
 110 0098 83308101 		ld	ra,24(sp)
 111              		.cfi_remember_state
 112              		.cfi_restore 1
 113 009c 03340101 		ld	s0,16(sp)
 114              		.cfi_restore 8
 115              		.cfi_def_cfa 2, 32
 116 00a0 83348100 		ld	s1,8(sp)
 117              		.cfi_restore 9
GAS LISTING /tmp/ccXDrAIO.s 			page 5


 118 00a4 13010102 		addi	sp,sp,32
 119              		.cfi_def_cfa_offset 0
 120 00a8 67800000 		jr	ra
 121              	.LVL8:
 122              	.L10:
 123              		.cfi_restore_state
 124              	.LBB24:
 125              	.LBB23:
  90:src/../h/../h/List.hpp ****         }
 126              		.loc 2 90 13
 127 00ac 97070000 		sd	zero,.LANCHOR0+8,a5
 127      23B00700 
 128 00b4 6FF01FFC 		j	.L7
 129              	.LVL9:
 130              	.L8:
  86:src/../h/../h/List.hpp ****         Elem* elem = head;
 131              		.loc 2 86 26
 132 00b8 93040500 		mv	s1,a0
 133              	.LVL10:
 134              	.LBE23:
 135              	.LBE24:
   6:src/Scheduler.cpp ****     return readyQueue.removeFirst();
 136              		.loc 1 6 35
 137 00bc 6FF09FFD 		j	.L5
 138              		.cfi_endproc
 139              	.LFE29:
 141              		.align	2
 142              		.globl	_ZN9Scheduler3putEP3PCB
 144              	_ZN9Scheduler3putEP3PCB:
 145              	.LFB30:
   9:src/Scheduler.cpp **** void Scheduler::put(PCB *pcb){
 146              		.loc 1 9 30 is_stmt 1
 147              		.cfi_startproc
 148              	.LVL11:
 149 00c0 130101FE 		addi	sp,sp,-32
 150              		.cfi_def_cfa_offset 32
 151 00c4 233C1100 		sd	ra,24(sp)
 152 00c8 23388100 		sd	s0,16(sp)
 153 00cc 23349100 		sd	s1,8(sp)
 154              		.cfi_offset 1, -8
 155              		.cfi_offset 8, -16
 156              		.cfi_offset 9, -24
 157 00d0 13040102 		addi	s0,sp,32
 158              		.cfi_def_cfa 8, 0
 159 00d4 93040500 		mv	s1,a0
  10:src/Scheduler.cpp ****     readyQueue.addLast(pcb);
 160              		.loc 1 10 5
 161              	.LVL12:
 162              	.LBB32:
 163              	.LBB33:
 164              	.LBB34:
 165              	.LBB35:
  18:src/../h/../h/List.hpp ****         }
 166              		.loc 2 18 48 is_stmt 0
 167 00d8 13051000 		li	a0,1
 168              	.LVL13:
 169 00dc 97000000 		call	_ZN15MemoryAllocator11allocateMEMEm@plt
GAS LISTING /tmp/ccXDrAIO.s 			page 6


 169      E7800000 
 170              	.LVL14:
 171              	.LBE35:
 172              	.LBE34:
 173              	.LBB36:
 174              	.LBB37:
  35:src/../h/../h/List.hpp ****     };
 175              		.loc 2 35 58
 176 00e4 23309500 		sd	s1,0(a0)
 177 00e8 23340500 		sd	zero,8(a0)
 178              	.LVL15:
 179              	.LBE37:
 180              	.LBE36:
  76:src/../h/../h/List.hpp ****             tail->next = elem;
 181              		.loc 2 76 12
 182 00ec 97070000 		ld	a5,.LANCHOR0+8
 182      83B70700 
  76:src/../h/../h/List.hpp ****             tail->next = elem;
 183              		.loc 2 76 9
 184 00f4 638C0702 		beqz	a5,.L12
  77:src/../h/../h/List.hpp ****             tail = elem;
 185              		.loc 2 77 13
 186 00f8 23B4A700 		sd	a0,8(a5)
  78:src/../h/../h/List.hpp ****         } else {
 187              		.loc 2 78 13
 188 00fc 97070000 		sd	a0,.LANCHOR0+8,a5
 188      23B0A700 
 189              	.L13:
  82:src/../h/../h/List.hpp ****     }
 190              		.loc 2 82 9
 191 0104 17070000 		lla	a4,.LANCHOR0
 191      13070700 
 192 010c 83270701 		lw	a5,16(a4)
 193 0110 9B871700 		addiw	a5,a5,1
 194 0114 2328F700 		sw	a5,16(a4)
 195              	.LVL16:
 196              	.LBE33:
 197              	.LBE32:
 198              		.loc 1 11 1
 199 0118 83308101 		ld	ra,24(sp)
 200              		.cfi_remember_state
 201              		.cfi_restore 1
 202 011c 03340101 		ld	s0,16(sp)
 203              		.cfi_restore 8
 204              		.cfi_def_cfa 2, 32
 205 0120 83348100 		ld	s1,8(sp)
 206              		.cfi_restore 9
 207              	.LVL17:
 208 0124 13010102 		addi	sp,sp,32
 209              		.cfi_def_cfa_offset 0
 210 0128 67800000 		jr	ra
 211              	.LVL18:
 212              	.L12:
 213              		.cfi_restore_state
 214              	.LBB39:
 215              	.LBB38:
  80:src/../h/../h/List.hpp ****         }
GAS LISTING /tmp/ccXDrAIO.s 			page 7


 216              		.loc 2 80 13
 217 012c 97070000 		lla	a5,.LANCHOR0
 217      93870700 
 218 0134 23B4A700 		sd	a0,8(a5)
 219 0138 23B0A700 		sd	a0,0(a5)
 220 013c 6FF09FFC 		j	.L13
 221              	.LBE38:
 222              	.LBE39:
 223              		.cfi_endproc
 224              	.LFE30:
 226              		.align	2
 228              	_GLOBAL__sub_I__ZN9Scheduler10readyQueueE:
 229              	.LFB42:
 230              		.loc 1 11 1 is_stmt 1
 231              		.cfi_startproc
 232 0140 130101FF 		addi	sp,sp,-16
 233              		.cfi_def_cfa_offset 16
 234 0144 23341100 		sd	ra,8(sp)
 235 0148 23308100 		sd	s0,0(sp)
 236              		.cfi_offset 1, -8
 237              		.cfi_offset 8, -16
 238 014c 13040101 		addi	s0,sp,16
 239              		.cfi_def_cfa 8, 0
 240              		.loc 1 11 1 is_stmt 0
 241 0150 B7050100 		li	a1,65536
 242 0154 9385F5FF 		addi	a1,a1,-1
 243 0158 13051000 		li	a0,1
 244 015c 97000000 		call	_Z41__static_initialization_and_destruction_0ii
 244      E7800000 
 245              	.LVL19:
 246 0164 83308100 		ld	ra,8(sp)
 247              		.cfi_restore 1
 248 0168 03340100 		ld	s0,0(sp)
 249              		.cfi_restore 8
 250              		.cfi_def_cfa 2, 16
 251 016c 13010101 		addi	sp,sp,16
 252              		.cfi_def_cfa_offset 0
 253 0170 67800000 		jr	ra
 254              		.cfi_endproc
 255              	.LFE42:
 257              		.section	.init_array,"aw"
 258              		.align	3
 259 0000 00000000 		.dword	_GLOBAL__sub_I__ZN9Scheduler10readyQueueE
 259      00000000 
 260              		.globl	_ZN9Scheduler10readyQueueE
 261              		.bss
 262              		.align	3
 263              		.set	.LANCHOR0,. + 0
 266              	_ZN9Scheduler10readyQueueE:
 267 0000 00000000 		.zero	24
 267      00000000 
 267      00000000 
 267      00000000 
 267      00000000 
 268              		.text
 269              	.Letext0:
 270              		.file 3 "src/../h/../h/../h/../lib/hw.h"
GAS LISTING /tmp/ccXDrAIO.s 			page 8


 271              		.file 4 "src/../h/../h/../h/../h/MemoryAllocator.hpp"
 272              		.file 5 "src/../h/../h/../h/PCB.hpp"
 273              		.file 6 "src/../h/Scheduler.hpp"
GAS LISTING /tmp/ccXDrAIO.s 			page 9


DEFINED SYMBOLS
                            *ABS*:0000000000000000 Scheduler.cpp
     /tmp/ccXDrAIO.s:8      .text:0000000000000000 _Z41__static_initialization_and_destruction_0ii
     /tmp/ccXDrAIO.s:12     .text:0000000000000000 .L0 
     /tmp/ccXDrAIO.s:14     .text:0000000000000000 .L0 
     /tmp/ccXDrAIO.s:15     .text:0000000000000004 .L0 
     /tmp/ccXDrAIO.s:17     .text:0000000000000008 .L0 
     /tmp/ccXDrAIO.s:19     .text:000000000000000c .L0 
     /tmp/ccXDrAIO.s:21     .text:000000000000000c .L0 
     /tmp/ccXDrAIO.s:25     .text:0000000000000018 .L0 
     /tmp/ccXDrAIO.s:26     .text:0000000000000018 .L0 
     /tmp/ccXDrAIO.s:27     .text:0000000000000018 .L0 
     /tmp/ccXDrAIO.s:29     .text:000000000000001c .L0 
     /tmp/ccXDrAIO.s:32     .text:0000000000000020 .L0 
     /tmp/ccXDrAIO.s:34     .text:0000000000000020 .L0 
     /tmp/ccXDrAIO.s:43     .text:000000000000002c .L0 
     /tmp/ccXDrAIO.s:52     .text:0000000000000040 .L0 
     /tmp/ccXDrAIO.s:53     .text:0000000000000044 .L0 
     /tmp/ccXDrAIO.s:59     .text:0000000000000044 _ZN9Scheduler3getEv
     /tmp/ccXDrAIO.s:62     .text:0000000000000044 .L0 
     /tmp/ccXDrAIO.s:63     .text:0000000000000044 .L0 
     /tmp/ccXDrAIO.s:64     .text:0000000000000048 .L0 
     /tmp/ccXDrAIO.s:68     .text:0000000000000054 .L0 
     /tmp/ccXDrAIO.s:69     .text:0000000000000054 .L0 
     /tmp/ccXDrAIO.s:70     .text:0000000000000054 .L0 
     /tmp/ccXDrAIO.s:72     .text:0000000000000058 .L0 
     /tmp/ccXDrAIO.s:77     .text:0000000000000058 .L0 
     /tmp/ccXDrAIO.s:78     .text:0000000000000058 .L0 
     /tmp/ccXDrAIO.s:80     .text:0000000000000060 .L0 
     /tmp/ccXDrAIO.s:83     .text:0000000000000064 .L0 
     /tmp/ccXDrAIO.s:85     .text:0000000000000068 .L0 
     /tmp/ccXDrAIO.s:87     .text:0000000000000070 .L0 
     /tmp/ccXDrAIO.s:90     .text:0000000000000074 .L0 
     /tmp/ccXDrAIO.s:95     .text:0000000000000078 .L0 
     /tmp/ccXDrAIO.s:100    .text:0000000000000080 .L0 
     /tmp/ccXDrAIO.s:109    .text:0000000000000094 .L0 
     /tmp/ccXDrAIO.s:111    .text:000000000000009c .L0 
     /tmp/ccXDrAIO.s:112    .text:000000000000009c .L0 
     /tmp/ccXDrAIO.s:114    .text:00000000000000a0 .L0 
     /tmp/ccXDrAIO.s:115    .text:00000000000000a0 .L0 
     /tmp/ccXDrAIO.s:117    .text:00000000000000a4 .L0 
     /tmp/ccXDrAIO.s:119    .text:00000000000000a8 .L0 
     /tmp/ccXDrAIO.s:123    .text:00000000000000ac .L0 
     /tmp/ccXDrAIO.s:127    .text:00000000000000ac .L0 
     /tmp/ccXDrAIO.s:132    .text:00000000000000b8 .L0 
     /tmp/ccXDrAIO.s:137    .text:00000000000000bc .L0 
     /tmp/ccXDrAIO.s:138    .text:00000000000000c0 .L0 
     /tmp/ccXDrAIO.s:144    .text:00000000000000c0 _ZN9Scheduler3putEP3PCB
     /tmp/ccXDrAIO.s:147    .text:00000000000000c0 .L0 
     /tmp/ccXDrAIO.s:149    .text:00000000000000c0 .L0 
     /tmp/ccXDrAIO.s:150    .text:00000000000000c4 .L0 
     /tmp/ccXDrAIO.s:154    .text:00000000000000d0 .L0 
     /tmp/ccXDrAIO.s:155    .text:00000000000000d0 .L0 
     /tmp/ccXDrAIO.s:156    .text:00000000000000d0 .L0 
     /tmp/ccXDrAIO.s:158    .text:00000000000000d4 .L0 
     /tmp/ccXDrAIO.s:166    .text:00000000000000d8 .L0 
     /tmp/ccXDrAIO.s:167    .text:00000000000000d8 .L0 
GAS LISTING /tmp/ccXDrAIO.s 			page 10


     /tmp/ccXDrAIO.s:176    .text:00000000000000e4 .L0 
     /tmp/ccXDrAIO.s:182    .text:00000000000000ec .L0 
     /tmp/ccXDrAIO.s:184    .text:00000000000000f4 .L0 
     /tmp/ccXDrAIO.s:186    .text:00000000000000f8 .L0 
     /tmp/ccXDrAIO.s:188    .text:00000000000000fc .L0 
     /tmp/ccXDrAIO.s:191    .text:0000000000000104 .L0 
     /tmp/ccXDrAIO.s:199    .text:0000000000000118 .L0 
     /tmp/ccXDrAIO.s:200    .text:000000000000011c .L0 
     /tmp/ccXDrAIO.s:201    .text:000000000000011c .L0 
     /tmp/ccXDrAIO.s:203    .text:0000000000000120 .L0 
     /tmp/ccXDrAIO.s:204    .text:0000000000000120 .L0 
     /tmp/ccXDrAIO.s:206    .text:0000000000000124 .L0 
     /tmp/ccXDrAIO.s:209    .text:0000000000000128 .L0 
     /tmp/ccXDrAIO.s:213    .text:000000000000012c .L0 
     /tmp/ccXDrAIO.s:217    .text:000000000000012c .L0 
     /tmp/ccXDrAIO.s:223    .text:0000000000000140 .L0 
     /tmp/ccXDrAIO.s:228    .text:0000000000000140 _GLOBAL__sub_I__ZN9Scheduler10readyQueueE
     /tmp/ccXDrAIO.s:231    .text:0000000000000140 .L0 
     /tmp/ccXDrAIO.s:232    .text:0000000000000140 .L0 
     /tmp/ccXDrAIO.s:233    .text:0000000000000144 .L0 
     /tmp/ccXDrAIO.s:236    .text:000000000000014c .L0 
     /tmp/ccXDrAIO.s:237    .text:000000000000014c .L0 
     /tmp/ccXDrAIO.s:239    .text:0000000000000150 .L0 
     /tmp/ccXDrAIO.s:241    .text:0000000000000150 .L0 
     /tmp/ccXDrAIO.s:247    .text:0000000000000168 .L0 
     /tmp/ccXDrAIO.s:249    .text:000000000000016c .L0 
     /tmp/ccXDrAIO.s:250    .text:000000000000016c .L0 
     /tmp/ccXDrAIO.s:252    .text:0000000000000170 .L0 
     /tmp/ccXDrAIO.s:254    .text:0000000000000174 .L0 
     /tmp/ccXDrAIO.s:266    .bss:0000000000000000 _ZN9Scheduler10readyQueueE
     /tmp/ccXDrAIO.s:263    .bss:0000000000000000 .LANCHOR0
     /tmp/ccXDrAIO.s:274    .text:0000000000000174 .L0 
     /tmp/ccXDrAIO.s:43     .text:000000000000002c .L0 
     /tmp/ccXDrAIO.s:78     .text:0000000000000058 .L0 
     /tmp/ccXDrAIO.s:85     .text:0000000000000068 .L0 
     /tmp/ccXDrAIO.s:100    .text:0000000000000080 .L0 
     /tmp/ccXDrAIO.s:127    .text:00000000000000ac .L0 
     /tmp/ccXDrAIO.s:182    .text:00000000000000ec .L0 
     /tmp/ccXDrAIO.s:188    .text:00000000000000fc .L0 
     /tmp/ccXDrAIO.s:191    .text:0000000000000104 .L0 
     /tmp/ccXDrAIO.s:217    .text:000000000000012c .L0 
     /tmp/ccXDrAIO.s:31     .text:0000000000000020 .L4
     /tmp/ccXDrAIO.s:23     .text:0000000000000014 .L1
     /tmp/ccXDrAIO.s:130    .text:00000000000000b8 .L8
     /tmp/ccXDrAIO.s:122    .text:00000000000000ac .L10
     /tmp/ccXDrAIO.s:88     .text:0000000000000074 .L7
     /tmp/ccXDrAIO.s:105    .text:0000000000000094 .L5
     /tmp/ccXDrAIO.s:212    .text:000000000000012c .L12
     /tmp/ccXDrAIO.s:189    .text:0000000000000104 .L13
     /tmp/ccXDrAIO.s:1461   .debug_abbrev:0000000000000000 .Ldebug_abbrev0
     /tmp/ccXDrAIO.s:2966   .debug_str:00000000000006f6 .LASF112
     /tmp/ccXDrAIO.s:2988   .debug_str:0000000000000859 .LASF113
     /tmp/ccXDrAIO.s:2766   .debug_str:000000000000002d .LASF114
     /tmp/ccXDrAIO.s:5      .text:0000000000000000 .Ltext0
     /tmp/ccXDrAIO.s:269    .text:0000000000000174 .Letext0
     /tmp/ccXDrAIO.s:2758   .debug_line:0000000000000000 .Ldebug_line0
     /tmp/ccXDrAIO.s:2902   .debug_str:00000000000004ec .LASF0
GAS LISTING /tmp/ccXDrAIO.s 			page 11


     /tmp/ccXDrAIO.s:2916   .debug_str:000000000000055e .LASF1
     /tmp/ccXDrAIO.s:2888   .debug_str:000000000000049d .LASF2
     /tmp/ccXDrAIO.s:2856   .debug_str:00000000000003b7 .LASF4
     /tmp/ccXDrAIO.s:2954   .debug_str:00000000000006a3 .LASF3
     /tmp/ccXDrAIO.s:2782   .debug_str:00000000000000dd .LASF5
     /tmp/ccXDrAIO.s:2918   .debug_str:0000000000000571 .LASF6
     /tmp/ccXDrAIO.s:2900   .debug_str:00000000000004d9 .LASF7
     /tmp/ccXDrAIO.s:2978   .debug_str:000000000000080c .LASF8
     /tmp/ccXDrAIO.s:2838   .debug_str:000000000000031b .LASF9
     /tmp/ccXDrAIO.s:2930   .debug_str:00000000000005e7 .LASF10
     /tmp/ccXDrAIO.s:2970   .debug_str:00000000000007c6 .LASF11
     /tmp/ccXDrAIO.s:2786   .debug_str:00000000000000ef .LASF12
     /tmp/ccXDrAIO.s:2764   .debug_str:000000000000001d .LASF13
     /tmp/ccXDrAIO.s:2800   .debug_str:00000000000001b7 .LASF14
     /tmp/ccXDrAIO.s:2944   .debug_str:000000000000064a .LASF15
     /tmp/ccXDrAIO.s:2810   .debug_str:0000000000000210 .LASF16
     /tmp/ccXDrAIO.s:2882   .debug_str:000000000000045f .LASF23
     /tmp/ccXDrAIO.s:2906   .debug_str:000000000000051d .LASF24
     /tmp/ccXDrAIO.s:3008   .debug_str:00000000000008ec .LASF17
     /tmp/ccXDrAIO.s:2962   .debug_str:00000000000006e8 .LASF18
     /tmp/ccXDrAIO.s:2760   .debug_str:0000000000000000 .LASF40
     /tmp/ccXDrAIO.s:2818   .debug_str:000000000000023f .LASF19
     /tmp/ccXDrAIO.s:2822   .debug_str:0000000000000266 .LASF21
     /tmp/ccXDrAIO.s:2984   .debug_str:000000000000083f .LASF20
     /tmp/ccXDrAIO.s:2904   .debug_str:00000000000004f9 .LASF22
     /tmp/ccXDrAIO.s:2952   .debug_str:0000000000000695 .LASF30
     /tmp/ccXDrAIO.s:2796   .debug_str:0000000000000168 .LASF32
     /tmp/ccXDrAIO.s:2770   .debug_str:0000000000000065 .LASF25
     /tmp/ccXDrAIO.s:2992   .debug_str:000000000000087f .LASF26
     /tmp/ccXDrAIO.s:2920   .debug_str:0000000000000584 .LASF27
     /tmp/ccXDrAIO.s:2832   .debug_str:00000000000002de .LASF28
     /tmp/ccXDrAIO.s:2804   .debug_str:00000000000001cf .LASF29
     /tmp/ccXDrAIO.s:2956   .debug_str:00000000000006b5 .LASF31
     /tmp/ccXDrAIO.s:2960   .debug_str:00000000000006db .LASF33
     /tmp/ccXDrAIO.s:2858   .debug_str:00000000000003be .LASF34
     /tmp/ccXDrAIO.s:3000   .debug_str:00000000000008c9 .LASF35
     /tmp/ccXDrAIO.s:2940   .debug_str:000000000000062c .LASF36
     /tmp/ccXDrAIO.s:2790   .debug_str:0000000000000129 .LASF37
     /tmp/ccXDrAIO.s:2896   .debug_str:00000000000004c4 .LASF88
     /tmp/ccXDrAIO.s:2924   .debug_str:00000000000005ad .LASF89
     /tmp/ccXDrAIO.s:2890   .debug_str:00000000000004ab .LASF38
     /tmp/ccXDrAIO.s:2772   .debug_str:000000000000006d .LASF39
     /tmp/ccXDrAIO.s:2946   .debug_str:0000000000000660 .LASF64
     /tmp/ccXDrAIO.s:2980   .debug_str:000000000000081c .LASF66
     /tmp/ccXDrAIO.s:2996   .debug_str:00000000000008a5 .LASF41
     /tmp/ccXDrAIO.s:2958   .debug_str:00000000000006c5 .LASF115
     /tmp/ccXDrAIO.s:2936   .debug_str:0000000000000622 .LASF116
     /tmp/ccXDrAIO.s:2862   .debug_str:00000000000003da .LASF42
     /tmp/ccXDrAIO.s:2908   .debug_str:000000000000052b .LASF43
     /tmp/ccXDrAIO.s:2864   .debug_str:00000000000003df .LASF44
     /tmp/ccXDrAIO.s:2860   .debug_str:00000000000003d1 .LASF45
     /tmp/ccXDrAIO.s:2910   .debug_str:0000000000000531 .LASF46
     /tmp/ccXDrAIO.s:2768   .debug_str:000000000000005b .LASF47
     /tmp/ccXDrAIO.s:2876   .debug_str:0000000000000432 .LASF48
     /tmp/ccXDrAIO.s:2926   .debug_str:00000000000005c4 .LASF50
     /tmp/ccXDrAIO.s:2986   .debug_str:000000000000084b .LASF52
     /tmp/ccXDrAIO.s:2798   .debug_str:000000000000018f .LASF54
GAS LISTING /tmp/ccXDrAIO.s 			page 12


     /tmp/ccXDrAIO.s:3004   .debug_str:00000000000008db .LASF49
     /tmp/ccXDrAIO.s:2850   .debug_str:000000000000038b .LASF51
     /tmp/ccXDrAIO.s:3006   .debug_str:00000000000008e4 .LASF53
     /tmp/ccXDrAIO.s:2990   .debug_str:000000000000086b .LASF55
     /tmp/ccXDrAIO.s:2874   .debug_str:0000000000000427 .LASF56
     /tmp/ccXDrAIO.s:2848   .debug_str:0000000000000380 .LASF57
     /tmp/ccXDrAIO.s:2830   .debug_str:00000000000002ce .LASF58
     /tmp/ccXDrAIO.s:2820   .debug_str:0000000000000249 .LASF59
     /tmp/ccXDrAIO.s:2762   .debug_str:000000000000000c .LASF60
     /tmp/ccXDrAIO.s:2808   .debug_str:00000000000001f2 .LASF61
     /tmp/ccXDrAIO.s:2816   .debug_str:0000000000000230 .LASF62
     /tmp/ccXDrAIO.s:2834   .debug_str:00000000000002ee .LASF63
     /tmp/ccXDrAIO.s:2974   .debug_str:00000000000007e9 .LASF70
     /tmp/ccXDrAIO.s:2942   .debug_str:0000000000000631 .LASF117
     /tmp/ccXDrAIO.s:2828   .debug_str:00000000000002bc .LASF65
     /tmp/ccXDrAIO.s:2922   .debug_str:0000000000000590 .LASF67
     /tmp/ccXDrAIO.s:2826   .debug_str:00000000000002b7 .LASF68
     /tmp/ccXDrAIO.s:2928   .debug_str:00000000000005dd .LASF69
     /tmp/ccXDrAIO.s:2776   .debug_str:000000000000009d .LASF118
     /tmp/ccXDrAIO.s:2878   .debug_str:0000000000000440 .LASF119
     /tmp/ccXDrAIO.s:2852   .debug_str:000000000000039e .LASF120
     /tmp/ccXDrAIO.s:2866   .debug_str:00000000000003e7 .LASF71
     /tmp/ccXDrAIO.s:2812   .debug_str:0000000000000226 .LASF72
     /tmp/ccXDrAIO.s:2938   .debug_str:0000000000000627 .LASF73
     /tmp/ccXDrAIO.s:2794   .debug_str:0000000000000150 .LASF74
     /tmp/ccXDrAIO.s:2932   .debug_str:00000000000005f6 .LASF75
     /tmp/ccXDrAIO.s:2994   .debug_str:000000000000088c .LASF76
     /tmp/ccXDrAIO.s:2774   .debug_str:0000000000000084 .LASF77
     /tmp/ccXDrAIO.s:2846   .debug_str:0000000000000361 .LASF78
     /tmp/ccXDrAIO.s:2814   .debug_str:000000000000022b .LASF79
     /tmp/ccXDrAIO.s:2894   .debug_str:00000000000004bf .LASF80
     /tmp/ccXDrAIO.s:2880   .debug_str:0000000000000458 .LASF81
     /tmp/ccXDrAIO.s:2982   .debug_str:000000000000082c .LASF82
     /tmp/ccXDrAIO.s:2836   .debug_str:0000000000000308 .LASF83
     /tmp/ccXDrAIO.s:2934   .debug_str:000000000000060e .LASF84
     /tmp/ccXDrAIO.s:2972   .debug_str:00000000000007d5 .LASF85
     /tmp/ccXDrAIO.s:2854   .debug_str:00000000000003b2 .LASF86
     /tmp/ccXDrAIO.s:2872   .debug_str:0000000000000414 .LASF87
     /tmp/ccXDrAIO.s:2780   .debug_str:00000000000000c6 .LASF90
     /tmp/ccXDrAIO.s:2898   .debug_str:00000000000004cf .LASF121
     /tmp/ccXDrAIO.s:2806   .debug_str:00000000000001db .LASF122
     /tmp/ccXDrAIO.s:2964   .debug_str:00000000000006ed .LASF91
     /tmp/ccXDrAIO.s:2914   .debug_str:0000000000000541 .LASF92
     /tmp/ccXDrAIO.s:2892   .debug_str:00000000000004b7 .LASF93
     /tmp/ccXDrAIO.s:2998   .debug_str:00000000000008ad .LASF94
     /tmp/ccXDrAIO.s:2968   .debug_str:00000000000007ba .LASF95
     /tmp/ccXDrAIO.s:2778   .debug_str:00000000000000a8 .LASF96
     /tmp/ccXDrAIO.s:2840   .debug_str:0000000000000329 .LASF97
     /tmp/ccXDrAIO.s:2844   .debug_str:0000000000000346 .LASF98
     /tmp/ccXDrAIO.s:2912   .debug_str:0000000000000536 .LASF99
     /tmp/ccXDrAIO.s:2824   .debug_str:000000000000029a .LASF100
     /tmp/ccXDrAIO.s:2868   .debug_str:00000000000003f1 .LASF101
     /tmp/ccXDrAIO.s:2870   .debug_str:00000000000003fa .LASF102
     /tmp/ccXDrAIO.s:2976   .debug_str:00000000000007f7 .LASF123
     /tmp/ccXDrAIO.s:2792   .debug_str:0000000000000135 .LASF124
     /tmp/ccXDrAIO.s:2788   .debug_str:00000000000000ff .LASF103
     /tmp/ccXDrAIO.s:229    .text:0000000000000140 .LFB42
GAS LISTING /tmp/ccXDrAIO.s 			page 13


     /tmp/ccXDrAIO.s:255    .text:0000000000000174 .LFE42
     /tmp/ccXDrAIO.s:245    .text:0000000000000164 .LVL19
     /tmp/ccXDrAIO.s:2950   .debug_str:000000000000066b .LASF104
     /tmp/ccXDrAIO.s:9      .text:0000000000000000 .LFB41
     /tmp/ccXDrAIO.s:54     .text:0000000000000044 .LFE41
     /tmp/ccXDrAIO.s:2884   .debug_str:000000000000046f .LASF105
     /tmp/ccXDrAIO.s:2784   .debug_str:00000000000000e4 .LASF106
     /tmp/ccXDrAIO.s:38     .text:000000000000002c .LBB12
     /tmp/ccXDrAIO.s:50     .text:0000000000000040 .LBE12
     /tmp/ccXDrAIO.s:2592   .debug_loc:0000000000000000 .LLST0
     /tmp/ccXDrAIO.s:3002   .debug_str:00000000000008d6 .LASF107
     /tmp/ccXDrAIO.s:2886   .debug_str:000000000000047e .LASF110
     /tmp/ccXDrAIO.s:2802   .debug_str:00000000000001c3 .LASF108
     /tmp/ccXDrAIO.s:2948   .debug_str:0000000000000666 .LASF109
     /tmp/ccXDrAIO.s:2842   .debug_str:0000000000000333 .LASF111
     /tmp/ccXDrAIO.s:145    .text:00000000000000c0 .LFB30
     /tmp/ccXDrAIO.s:224    .text:0000000000000140 .LFE30
     /tmp/ccXDrAIO.s:2601   .debug_loc:000000000000002c .LLST5
     /tmp/ccXDrAIO.s:162    .text:00000000000000d8 .LBB32
     /tmp/ccXDrAIO.s:2744   .debug_ranges:0000000000000000 .Ldebug_ranges0
     /tmp/ccXDrAIO.s:2623   .debug_loc:000000000000008b .LLST6
     /tmp/ccXDrAIO.s:2638   .debug_loc:00000000000000d4 .LLST7
     /tmp/ccXDrAIO.s:164    .text:00000000000000d8 .LBB34
     /tmp/ccXDrAIO.s:172    .text:00000000000000e4 .LBE34
     /tmp/ccXDrAIO.s:2653   .debug_loc:000000000000011c .LLST8
     /tmp/ccXDrAIO.s:2661   .debug_loc:0000000000000140 .LLST9
     /tmp/ccXDrAIO.s:170    .text:00000000000000e4 .LVL14
     /tmp/ccXDrAIO.s:173    .text:00000000000000e4 .LBB36
     /tmp/ccXDrAIO.s:180    .text:00000000000000ec .LBE36
     /tmp/ccXDrAIO.s:2669   .debug_loc:0000000000000164 .LLST10
     /tmp/ccXDrAIO.s:2677   .debug_loc:0000000000000188 .LLST11
     /tmp/ccXDrAIO.s:2684   .debug_loc:00000000000001ab .LLST12
     /tmp/ccXDrAIO.s:60     .text:0000000000000044 .LFB29
     /tmp/ccXDrAIO.s:139    .text:00000000000000c0 .LFE29
     /tmp/ccXDrAIO.s:75     .text:0000000000000058 .LBB19
     /tmp/ccXDrAIO.s:2691   .debug_loc:00000000000001ce .LLST1
     /tmp/ccXDrAIO.s:2706   .debug_loc:0000000000000216 .LLST2
     /tmp/ccXDrAIO.s:2717   .debug_loc:000000000000024c .LLST3
     /tmp/ccXDrAIO.s:92     .text:0000000000000078 .LBB21
     /tmp/ccXDrAIO.s:98     .text:0000000000000080 .LBE21
     /tmp/ccXDrAIO.s:2724   .debug_loc:000000000000026f .LLST4
     /tmp/ccXDrAIO.s:96     .text:0000000000000080 .LVL6
     /tmp/ccXDrAIO.s:37     .text:000000000000002c .LVL1
     /tmp/ccXDrAIO.s:47     .text:0000000000000040 .LVL2
     /tmp/ccXDrAIO.s:148    .text:00000000000000c0 .LVL11
     /tmp/ccXDrAIO.s:168    .text:00000000000000dc .LVL13
     /tmp/ccXDrAIO.s:207    .text:0000000000000124 .LVL17
     /tmp/ccXDrAIO.s:211    .text:000000000000012c .LVL18
     /tmp/ccXDrAIO.s:161    .text:00000000000000d8 .LVL12
     /tmp/ccXDrAIO.s:195    .text:0000000000000118 .LVL16
     /tmp/ccXDrAIO.s:178    .text:00000000000000ec .LVL15
     /tmp/ccXDrAIO.s:74     .text:0000000000000058 .LVL3
     /tmp/ccXDrAIO.s:104    .text:0000000000000094 .LVL7
     /tmp/ccXDrAIO.s:121    .text:00000000000000ac .LVL8
     /tmp/ccXDrAIO.s:133    .text:00000000000000bc .LVL10
     /tmp/ccXDrAIO.s:81     .text:0000000000000064 .LVL4
     /tmp/ccXDrAIO.s:129    .text:00000000000000b8 .LVL9
GAS LISTING /tmp/ccXDrAIO.s 			page 14


     /tmp/ccXDrAIO.s:91     .text:0000000000000078 .LVL5
     /tmp/ccXDrAIO.s:275    .debug_info:0000000000000000 .Ldebug_info0
     /tmp/ccXDrAIO.s:107    .text:0000000000000094 .LBE19
     /tmp/ccXDrAIO.s:124    .text:00000000000000ac .LBB24
     /tmp/ccXDrAIO.s:135    .text:00000000000000bc .LBE24
     /tmp/ccXDrAIO.s:197    .text:0000000000000118 .LBE32
     /tmp/ccXDrAIO.s:214    .text:000000000000012c .LBB39
     /tmp/ccXDrAIO.s:222    .text:0000000000000140 .LBE39

UNDEFINED SYMBOLS
_ZN15MemoryAllocator13deallocateMEMEPv
_ZN15MemoryAllocator11allocateMEMEm
