GAS LISTING /tmp/ccZUPCwV.s 			page 1


   1              		.file	"Sem.cpp"
   2              		.option pic
   3              		.option norelax
   4              		.text
   5              	.Ltext0:
   6              		.align	2
   7              		.globl	_ZN3SemD2Ev
   9              	_ZN3SemD2Ev:
  10              	.LFB38:
  11              		.file 1 "src/Sem.cpp"
   1:src/Sem.cpp   **** #include "../h/Sem.hpp"
   2:src/Sem.cpp   **** 
   3:src/Sem.cpp   **** Sem::~Sem() {
  12              		.loc 1 3 1
  13              		.cfi_startproc
  14              		.cfi_personality 0x9b,DW.ref.__gxx_personality_v0
  15              		.cfi_lsda 0x1b,.LLSDA38
  16              	.LVL0:
  17 0000 130101FD 		addi	sp,sp,-48
  18              		.cfi_def_cfa_offset 48
  19 0004 23341102 		sd	ra,40(sp)
  20 0008 23308102 		sd	s0,32(sp)
  21 000c 233C9100 		sd	s1,24(sp)
  22 0010 23382101 		sd	s2,16(sp)
  23 0014 23343101 		sd	s3,8(sp)
  24              		.cfi_offset 1, -8
  25              		.cfi_offset 8, -16
  26              		.cfi_offset 9, -24
  27              		.cfi_offset 18, -32
  28              		.cfi_offset 19, -40
  29 0018 13040103 		addi	s0,sp,48
  30              		.cfi_def_cfa 8, 0
  31 001c 93040500 		mv	s1,a0
  32              	.LBB37:
  33              		.loc 1 3 11 is_stmt 0
  34 0020 97070000 		lla	a5,_ZTV3Sem+16
  34      93870700 
  35 0028 2330F500 		sd	a5,0(a0)
  36 002c 6F00C002 		j	.L5
  37              	.LVL1:
  38              	.L8:
  39              	.LBB38:
  40              	.LBB39:
  41              	.LBB40:
  42              	.LBB41:
  43              		.file 2 "src/../h/../h/List.hpp"
   1:src/../h/../h/List.hpp **** #ifndef PROJECT_BASE_V1_1_LIST_HPP
   2:src/../h/../h/List.hpp **** #define PROJECT_BASE_V1_1_LIST_HPP
   3:src/../h/../h/List.hpp **** 
   4:src/../h/../h/List.hpp **** #include "../h/PCB.hpp"
   5:src/../h/../h/List.hpp **** #include "../lib/console.h"
   6:src/../h/../h/List.hpp **** 
   7:src/../h/../h/List.hpp **** template <typename T>
   8:src/../h/../h/List.hpp **** class List {
   9:src/../h/../h/List.hpp **** 
  10:src/../h/../h/List.hpp **** private:
  11:src/../h/../h/List.hpp ****     struct Elem {
GAS LISTING /tmp/ccZUPCwV.s 			page 2


  12:src/../h/../h/List.hpp ****         T* data;
  13:src/../h/../h/List.hpp ****         Elem* next;
  14:src/../h/../h/List.hpp **** 
  15:src/../h/../h/List.hpp ****         static void *operator new(size_t n) {
  16:src/../h/../h/List.hpp ****             uint64 numOfBlocks = (n + sizeof(void*) + sizeof(uint64)) / MEM_BLOCK_SIZE;
  17:src/../h/../h/List.hpp ****             if((n + sizeof(void*) + sizeof(uint64)) % MEM_BLOCK_SIZE > 0) numOfBlocks++;
  18:src/../h/../h/List.hpp ****             return MemoryAllocator::allocateMEM(numOfBlocks);
  19:src/../h/../h/List.hpp ****         }
  20:src/../h/../h/List.hpp **** 
  21:src/../h/../h/List.hpp ****         static void *operator new[](size_t n) {
  22:src/../h/../h/List.hpp ****             uint64 numOfBlocks = (n + sizeof(void*) + sizeof(uint64)) / MEM_BLOCK_SIZE;
  23:src/../h/../h/List.hpp ****             if((n + sizeof(void*) + sizeof(uint64)) % MEM_BLOCK_SIZE > 0) numOfBlocks++;
  24:src/../h/../h/List.hpp ****             return MemoryAllocator::allocateMEM(numOfBlocks);
  25:src/../h/../h/List.hpp ****         }
  26:src/../h/../h/List.hpp **** 
  27:src/../h/../h/List.hpp ****         static void operator delete(void *p) {
  28:src/../h/../h/List.hpp ****             MemoryAllocator::deallocateMEM(p);
  29:src/../h/../h/List.hpp ****         }
  30:src/../h/../h/List.hpp **** 
  31:src/../h/../h/List.hpp ****         static void operator delete[](void *p) {
  32:src/../h/../h/List.hpp ****             MemoryAllocator::deallocateMEM(p);
  33:src/../h/../h/List.hpp ****         }
  34:src/../h/../h/List.hpp **** 
  35:src/../h/../h/List.hpp ****         Elem(T* data, Elem *next) : data(data), next(next) {}
  36:src/../h/../h/List.hpp ****     };
  37:src/../h/../h/List.hpp **** 
  38:src/../h/../h/List.hpp ****     Elem *head, *tail;
  39:src/../h/../h/List.hpp ****     int length;
  40:src/../h/../h/List.hpp **** 
  41:src/../h/../h/List.hpp **** public:
  42:src/../h/../h/List.hpp **** 
  43:src/../h/../h/List.hpp ****     static void *operator new(size_t n) {
  44:src/../h/../h/List.hpp ****         uint64 numOfBlocks = (n + sizeof(void*) + sizeof(uint64)) / MEM_BLOCK_SIZE;
  45:src/../h/../h/List.hpp ****         if((n + sizeof(void*) + sizeof(uint64)) % MEM_BLOCK_SIZE > 0) numOfBlocks++;
  46:src/../h/../h/List.hpp ****         return MemoryAllocator::allocateMEM(numOfBlocks);
  47:src/../h/../h/List.hpp ****     }
  48:src/../h/../h/List.hpp **** 
  49:src/../h/../h/List.hpp ****     static void *operator new[](size_t n) {
  50:src/../h/../h/List.hpp ****         uint64 numOfBlocks = (n + sizeof(void*) + sizeof(uint64)) / MEM_BLOCK_SIZE;
  51:src/../h/../h/List.hpp ****         if((n + sizeof(void*) + sizeof(uint64)) % MEM_BLOCK_SIZE > 0) numOfBlocks++;
  52:src/../h/../h/List.hpp ****         return MemoryAllocator::allocateMEM(numOfBlocks);
  53:src/../h/../h/List.hpp ****     }
  54:src/../h/../h/List.hpp **** 
  55:src/../h/../h/List.hpp ****     static void operator delete(void *p) {
  56:src/../h/../h/List.hpp ****         MemoryAllocator::deallocateMEM(p);
  57:src/../h/../h/List.hpp ****     }
  58:src/../h/../h/List.hpp **** 
  59:src/../h/../h/List.hpp ****     static void operator delete[](void *p) {
  60:src/../h/../h/List.hpp ****         MemoryAllocator::deallocateMEM(p);
  61:src/../h/../h/List.hpp ****     }
  62:src/../h/../h/List.hpp **** 
  63:src/../h/../h/List.hpp ****     List() : head(0), tail(0), length(0) {}
  64:src/../h/../h/List.hpp ****     List(const List<T> &) = delete;
  65:src/../h/../h/List.hpp ****     List<T> &operator=(const List<T>&) = delete;
  66:src/../h/../h/List.hpp **** 
  67:src/../h/../h/List.hpp ****     void addFirst(T * data){
  68:src/../h/../h/List.hpp ****         Elem *elem = new Elem(data, head);
GAS LISTING /tmp/ccZUPCwV.s 			page 3


  69:src/../h/../h/List.hpp ****         head = elem;
  70:src/../h/../h/List.hpp ****         if(!tail) tail = head;
  71:src/../h/../h/List.hpp ****         length++;
  72:src/../h/../h/List.hpp ****     }
  73:src/../h/../h/List.hpp **** 
  74:src/../h/../h/List.hpp ****     void addLast(T* data) {
  75:src/../h/../h/List.hpp ****         Elem* elem = new Elem(data, 0);
  76:src/../h/../h/List.hpp ****         if(tail){
  77:src/../h/../h/List.hpp ****             tail->next = elem;
  78:src/../h/../h/List.hpp ****             tail = elem;
  79:src/../h/../h/List.hpp ****         } else {
  80:src/../h/../h/List.hpp ****             head = tail = elem;
  81:src/../h/../h/List.hpp ****         }
  82:src/../h/../h/List.hpp ****         length++;
  83:src/../h/../h/List.hpp ****     }
  84:src/../h/../h/List.hpp **** 
  85:src/../h/../h/List.hpp ****     T *removeFirst() {
  86:src/../h/../h/List.hpp ****         if(!head) return 0;
  87:src/../h/../h/List.hpp ****         Elem* elem = head;
  88:src/../h/../h/List.hpp ****         head = head->next;
  89:src/../h/../h/List.hpp ****         if(!head) {
  90:src/../h/../h/List.hpp ****             tail = 0;
  44              		.loc 2 90 13
  45 0030 23340900 		sd	zero,8(s2)
  46              	.L4:
  91:src/../h/../h/List.hpp ****         }
  92:src/../h/../h/List.hpp ****         T* ret = elem->data;
  47              		.loc 2 92 12
  48 0034 83390500 		ld	s3,0(a0)
  49              	.LVL2:
  50              	.LBB42:
  51              	.LBB43:
  28:src/../h/../h/List.hpp ****         }
  52              		.loc 2 28 43
  53 0038 97000000 		call	_ZN15MemoryAllocator13deallocateMEMEPv@plt
  53      E7800000 
  54              	.LVL3:
  55              	.LBE43:
  56              	.LBE42:
  93:src/../h/../h/List.hpp ****         delete elem;
  94:src/../h/../h/List.hpp ****         length--;
  57              		.loc 2 94 9
  58 0040 83270901 		lw	a5,16(s2)
  59 0044 9B87F7FF 		addiw	a5,a5,-1
  60 0048 2328F900 		sw	a5,16(s2)
  61              	.LVL4:
  62              	.L3:
  63              	.LBE41:
  64              	.LBE40:
   4:src/Sem.cpp   ****     while(blocked.peekFirst() != nullptr) {
   5:src/Sem.cpp   ****         PCB* pcb = blocked.removeFirst();
   6:src/Sem.cpp   ****         Scheduler::put(pcb);
  65              		.loc 1 6 9 is_stmt 1
  66              		.loc 1 6 23 is_stmt 0
  67 004c 13850900 		mv	a0,s3
  68 0050 97000000 		call	_ZN9Scheduler3putEP3PCB@plt
  68      E7800000 
GAS LISTING /tmp/ccZUPCwV.s 			page 4


  69              	.LVL5:
  70              	.L5:
  71              	.LBE39:
   4:src/Sem.cpp   ****     while(blocked.peekFirst() != nullptr) {
  72              		.loc 1 4 5 is_stmt 1
   4:src/Sem.cpp   ****     while(blocked.peekFirst() != nullptr) {
  73              		.loc 1 4 31
  74              	.LBB46:
  75              	.LBB47:
  95:src/../h/../h/List.hpp ****         return ret;
  96:src/../h/../h/List.hpp **** 
  97:src/../h/../h/List.hpp ****     }
  98:src/../h/../h/List.hpp **** 
  99:src/../h/../h/List.hpp ****     T * peekFirst() {
 100:src/../h/../h/List.hpp ****         if(!head) { return 0; }
  76              		.loc 2 100 13 is_stmt 0
  77 0058 83B70401 		ld	a5,16(s1)
  78              		.loc 2 100 9
  79 005c 63880702 		beqz	a5,.L1
 101:src/../h/../h/List.hpp ****         return (head->data);
  80              		.loc 2 101 27
  81 0060 83B70700 		ld	a5,0(a5)
  82              	.LVL6:
  83              	.LBE47:
  84              	.LBE46:
   4:src/Sem.cpp   ****     while(blocked.peekFirst() != nullptr) {
  85              		.loc 1 4 31
  86 0064 63840702 		beqz	a5,.L1
  87              	.LBB48:
   5:src/Sem.cpp   ****         Scheduler::put(pcb);
  88              		.loc 1 5 9 is_stmt 1
   5:src/Sem.cpp   ****         Scheduler::put(pcb);
  89              		.loc 1 5 39 is_stmt 0
  90 0068 13890401 		addi	s2,s1,16
  91              	.LVL7:
  92              	.LBB45:
  93              	.LBB44:
  86:src/../h/../h/List.hpp ****         Elem* elem = head;
  94              		.loc 2 86 13
  95 006c 03B50401 		ld	a0,16(s1)
  86:src/../h/../h/List.hpp ****         Elem* elem = head;
  96              		.loc 2 86 9
  97 0070 630A0500 		beqz	a0,.L6
  98              	.LVL8:
  88:src/../h/../h/List.hpp ****         if(!head) {
  99              		.loc 2 88 22
 100 0074 83378500 		ld	a5,8(a0)
  88:src/../h/../h/List.hpp ****         if(!head) {
 101              		.loc 2 88 9
 102 0078 23B8F400 		sd	a5,16(s1)
  89:src/../h/../h/List.hpp ****             tail = 0;
 103              		.loc 2 89 9
 104 007c E39C07FA 		bnez	a5,.L4
 105 0080 6FF01FFB 		j	.L8
 106              	.LVL9:
 107              	.L6:
  86:src/../h/../h/List.hpp ****         Elem* elem = head;
GAS LISTING /tmp/ccZUPCwV.s 			page 5


 108              		.loc 2 86 26
 109 0084 93090500 		mv	s3,a0
 110 0088 6FF05FFC 		j	.L3
 111              	.LVL10:
 112              	.L1:
 113              	.LBE44:
 114              	.LBE45:
 115              	.LBE48:
 116              	.LBE38:
 117              	.LBE37:
   7:src/Sem.cpp   ****     }
   8:src/Sem.cpp   **** }
 118              		.loc 1 8 1
 119 008c 83308102 		ld	ra,40(sp)
 120              		.cfi_restore 1
 121 0090 03340102 		ld	s0,32(sp)
 122              		.cfi_restore 8
 123              		.cfi_def_cfa 2, 48
 124 0094 83348101 		ld	s1,24(sp)
 125              		.cfi_restore 9
 126              	.LVL11:
 127 0098 03390101 		ld	s2,16(sp)
 128              		.cfi_restore 18
 129 009c 83398100 		ld	s3,8(sp)
 130              		.cfi_restore 19
 131 00a0 13010103 		addi	sp,sp,48
 132              		.cfi_def_cfa_offset 0
 133 00a4 67800000 		jr	ra
 134              		.cfi_endproc
 135              	.LFE38:
 136              		.globl	__gxx_personality_v0
 137              		.section	.gcc_except_table,"a",@progbits
 138              	.LLSDA38:
 139 0000 FF       		.byte	0xff
 140 0001 FF       		.byte	0xff
 141 0002 03       		.byte	0x3
 142 0003 00       		.byte	0
 143              		.text
 145              		.globl	_ZN3SemD1Ev
 146              		.set	_ZN3SemD1Ev,_ZN3SemD2Ev
 147              		.align	2
 148              		.globl	_ZN3SemD0Ev
 150              	_ZN3SemD0Ev:
 151              	.LFB40:
   3:src/Sem.cpp   ****         PCB* pcb = blocked.removeFirst();
 152              		.loc 1 3 1 is_stmt 1
 153              		.cfi_startproc
 154              	.LVL12:
 155 00a8 130101FE 		addi	sp,sp,-32
 156              		.cfi_def_cfa_offset 32
 157 00ac 233C1100 		sd	ra,24(sp)
 158 00b0 23388100 		sd	s0,16(sp)
 159 00b4 23349100 		sd	s1,8(sp)
 160              		.cfi_offset 1, -8
 161              		.cfi_offset 8, -16
 162              		.cfi_offset 9, -24
 163 00b8 13040102 		addi	s0,sp,32
GAS LISTING /tmp/ccZUPCwV.s 			page 6


 164              		.cfi_def_cfa 8, 0
 165 00bc 93040500 		mv	s1,a0
 166              		.loc 1 8 1 is_stmt 0
 167 00c0 97000000 		call	_ZN3SemD1Ev
 167      E7800000 
 168              	.LVL13:
 169              	.LBB49:
 170              	.LBB50:
 171              		.file 3 "src/../h/Sem.hpp"
   1:src/../h/Sem.hpp **** #ifndef PROJECT_BASE_V1_1_SEM_HPP
   2:src/../h/Sem.hpp **** #define PROJECT_BASE_V1_1_SEM_HPP
   3:src/../h/Sem.hpp **** 
   4:src/../h/Sem.hpp **** #include "../h/List.hpp"
   5:src/../h/Sem.hpp **** #include "../h/Scheduler.hpp"
   6:src/../h/Sem.hpp **** #include "../h/PCB.hpp"
   7:src/../h/Sem.hpp **** 
   8:src/../h/Sem.hpp **** class Sem {
   9:src/../h/Sem.hpp **** 
  10:src/../h/Sem.hpp **** public:
  11:src/../h/Sem.hpp **** 
  12:src/../h/Sem.hpp ****     void *operator new(size_t n) {
  13:src/../h/Sem.hpp ****         uint64 numOfBlocks = (n + sizeof(void*) + sizeof(uint64)) / MEM_BLOCK_SIZE;
  14:src/../h/Sem.hpp ****         if((n + sizeof(void*) + sizeof(uint64)) % MEM_BLOCK_SIZE > 0) numOfBlocks++;
  15:src/../h/Sem.hpp ****         return MemoryAllocator::allocateMEM(numOfBlocks);
  16:src/../h/Sem.hpp ****     }
  17:src/../h/Sem.hpp **** 
  18:src/../h/Sem.hpp ****     void *operator new[](size_t n) {
  19:src/../h/Sem.hpp ****         uint64 numOfBlocks = (n + sizeof(void*) + sizeof(uint64)) / MEM_BLOCK_SIZE;
  20:src/../h/Sem.hpp ****         if((n + sizeof(void*) + sizeof(uint64)) % MEM_BLOCK_SIZE > 0) numOfBlocks++;
  21:src/../h/Sem.hpp ****         return MemoryAllocator::allocateMEM(numOfBlocks);
  22:src/../h/Sem.hpp ****     }
  23:src/../h/Sem.hpp **** 
  24:src/../h/Sem.hpp ****     void operator delete(void *p)  {
  25:src/../h/Sem.hpp ****         MemoryAllocator::deallocateMEM(p);
 172              		.loc 3 25 9 is_stmt 1
 173              		.loc 3 25 39 is_stmt 0
 174 00c8 13850400 		mv	a0,s1
 175 00cc 97000000 		call	_ZN15MemoryAllocator13deallocateMEMEPv@plt
 175      E7800000 
 176              	.LVL14:
 177              	.LBE50:
 178              	.LBE49:
 179              		.loc 1 8 1
 180 00d4 83308101 		ld	ra,24(sp)
 181              		.cfi_restore 1
 182 00d8 03340101 		ld	s0,16(sp)
 183              		.cfi_restore 8
 184              		.cfi_def_cfa 2, 32
 185 00dc 83348100 		ld	s1,8(sp)
 186              		.cfi_restore 9
 187              	.LVL15:
 188 00e0 13010102 		addi	sp,sp,32
 189              		.cfi_def_cfa_offset 0
 190 00e4 67800000 		jr	ra
 191              		.cfi_endproc
 192              	.LFE40:
 194              		.align	2
GAS LISTING /tmp/ccZUPCwV.s 			page 7


 195              		.globl	_ZN3Sem5blockEv
 197              	_ZN3Sem5blockEv:
 198              	.LFB41:
   9:src/Sem.cpp   **** 
  10:src/Sem.cpp   **** void Sem::block() {
 199              		.loc 1 10 19 is_stmt 1
 200              		.cfi_startproc
 201              	.LVL16:
 202 00e8 130101FD 		addi	sp,sp,-48
 203              		.cfi_def_cfa_offset 48
 204 00ec 23341102 		sd	ra,40(sp)
 205 00f0 23308102 		sd	s0,32(sp)
 206 00f4 233C9100 		sd	s1,24(sp)
 207 00f8 23382101 		sd	s2,16(sp)
 208 00fc 23343101 		sd	s3,8(sp)
 209              		.cfi_offset 1, -8
 210              		.cfi_offset 8, -16
 211              		.cfi_offset 9, -24
 212              		.cfi_offset 18, -32
 213              		.cfi_offset 19, -40
 214 0100 13040103 		addi	s0,sp,48
 215              		.cfi_def_cfa 8, 0
 216 0104 13090500 		mv	s2,a0
  11:src/Sem.cpp   ****     PCB *old = PCB::running;
 217              		.loc 1 11 5
 218              		.loc 1 11 10 is_stmt 0
 219 0108 97070000 		la	a5,_ZN3PCB7runningE
 219      83B70700 
 220 0110 83B90700 		ld	s3,0(a5)
 221              	.LVL17:
  12:src/Sem.cpp   ****     blocked.addLast(PCB::running);
 222              		.loc 1 12 5 is_stmt 1
 223              		.loc 1 12 20 is_stmt 0
 224 0114 93040501 		addi	s1,a0,16
 225              	.LVL18:
 226              	.LBB58:
 227              	.LBB59:
 228              	.LBB60:
 229              	.LBB61:
  18:src/../h/../h/List.hpp ****         }
 230              		.loc 2 18 48
 231 0118 13051000 		li	a0,1
 232              	.LVL19:
 233 011c 97000000 		call	_ZN15MemoryAllocator11allocateMEMEm@plt
 233      E7800000 
 234              	.LVL20:
 235              	.LBE61:
 236              	.LBE60:
 237              	.LBB62:
 238              	.LBB63:
  35:src/../h/../h/List.hpp ****     };
 239              		.loc 2 35 58
 240 0124 23303501 		sd	s3,0(a0)
 241 0128 23340500 		sd	zero,8(a0)
 242              	.LVL21:
 243              	.LBE63:
 244              	.LBE62:
GAS LISTING /tmp/ccZUPCwV.s 			page 8


  76:src/../h/../h/List.hpp ****             tail->next = elem;
 245              		.loc 2 76 12
 246 012c 83B78400 		ld	a5,8(s1)
  76:src/../h/../h/List.hpp ****             tail->next = elem;
 247              		.loc 2 76 9
 248 0130 63840706 		beqz	a5,.L12
  77:src/../h/../h/List.hpp ****             tail = elem;
 249              		.loc 2 77 13
 250 0134 23B4A700 		sd	a0,8(a5)
  78:src/../h/../h/List.hpp ****         } else {
 251              		.loc 2 78 13
 252 0138 23B4A400 		sd	a0,8(s1)
 253              	.L13:
  82:src/../h/../h/List.hpp ****     }
 254              		.loc 2 82 9
 255 013c 83A70401 		lw	a5,16(s1)
 256 0140 9B871700 		addiw	a5,a5,1
 257 0144 23A8F400 		sw	a5,16(s1)
 258              	.LVL22:
 259              	.LBE59:
 260              	.LBE58:
  13:src/Sem.cpp   ****     PCB::running->isBlocked = true;
 261              		.loc 1 13 5 is_stmt 1
 262              		.loc 1 13 19 is_stmt 0
 263 0148 97040000 		la	s1,_ZN3PCB7runningE
 263      83B40400 
 264 0150 83B70400 		ld	a5,0(s1)
 265              		.loc 1 13 29
 266 0154 13071000 		li	a4,1
 267 0158 2388E702 		sb	a4,48(a5)
  14:src/Sem.cpp   ****     PCB::running = Scheduler::get();
 268              		.loc 1 14 5 is_stmt 1
 269              		.loc 1 14 34 is_stmt 0
 270 015c 97000000 		call	_ZN9Scheduler3getEv@plt
 270      E7800000 
 271              	.LVL23:
 272              		.loc 1 14 18
 273 0164 23B0A400 		sd	a0,0(s1)
  15:src/Sem.cpp   ****     if(PCB::running) PCB::contextSwitch(&old->context, &PCB::running->context);
 274              		.loc 1 15 5 is_stmt 1
 275 0168 630A0500 		beqz	a0,.L11
 276              		.loc 1 15 22 discriminator 1
 277              		.loc 1 15 40 is_stmt 0 discriminator 1
 278 016c 93050501 		addi	a1,a0,16
 279 0170 13850901 		addi	a0,s3,16
 280 0174 97000000 		call	_ZN3PCB13contextSwitchEPNS_7ContextES1_@plt
 280      E7800000 
 281              	.LVL24:
 282              	.L11:
  16:src/Sem.cpp   **** }
 283              		.loc 1 16 1
 284 017c 83308102 		ld	ra,40(sp)
 285              		.cfi_remember_state
 286              		.cfi_restore 1
 287 0180 03340102 		ld	s0,32(sp)
 288              		.cfi_restore 8
 289              		.cfi_def_cfa 2, 48
GAS LISTING /tmp/ccZUPCwV.s 			page 9


 290 0184 83348101 		ld	s1,24(sp)
 291              		.cfi_restore 9
 292 0188 03390101 		ld	s2,16(sp)
 293              		.cfi_restore 18
 294              	.LVL25:
 295 018c 83398100 		ld	s3,8(sp)
 296              		.cfi_restore 19
 297              	.LVL26:
 298 0190 13010103 		addi	sp,sp,48
 299              		.cfi_def_cfa_offset 0
 300 0194 67800000 		jr	ra
 301              	.LVL27:
 302              	.L12:
 303              		.cfi_restore_state
 304              	.LBB65:
 305              	.LBB64:
  80:src/../h/../h/List.hpp ****         }
 306              		.loc 2 80 13
 307 0198 23B4A400 		sd	a0,8(s1)
 308 019c 2338A900 		sd	a0,16(s2)
 309 01a0 6FF0DFF9 		j	.L13
 310              	.LBE64:
 311              	.LBE65:
 312              		.cfi_endproc
 313              	.LFE41:
 315              		.align	2
 316              		.globl	_ZN3Sem7unblockEv
 318              	_ZN3Sem7unblockEv:
 319              	.LFB42:
  17:src/Sem.cpp   **** 
  18:src/Sem.cpp   **** void Sem::unblock() {
 320              		.loc 1 18 21 is_stmt 1
 321              		.cfi_startproc
 322              	.LVL28:
 323 01a4 130101FE 		addi	sp,sp,-32
 324              		.cfi_def_cfa_offset 32
 325 01a8 233C1100 		sd	ra,24(sp)
 326 01ac 23388100 		sd	s0,16(sp)
 327 01b0 23349100 		sd	s1,8(sp)
 328 01b4 23302101 		sd	s2,0(sp)
 329              		.cfi_offset 1, -8
 330              		.cfi_offset 8, -16
 331              		.cfi_offset 9, -24
 332              		.cfi_offset 18, -32
 333 01b8 13040102 		addi	s0,sp,32
 334              		.cfi_def_cfa 8, 0
 335 01bc 93070500 		mv	a5,a0
  19:src/Sem.cpp   ****     PCB* t = blocked.removeFirst();
 336              		.loc 1 19 5
 337              		.loc 1 19 33 is_stmt 0
 338 01c0 93040501 		addi	s1,a0,16
 339              	.LVL29:
 340              	.LBB70:
 341              	.LBB71:
  86:src/../h/../h/List.hpp ****         Elem* elem = head;
 342              		.loc 2 86 13
 343 01c4 03350501 		ld	a0,16(a0)
GAS LISTING /tmp/ccZUPCwV.s 			page 10


 344              	.LVL30:
  86:src/../h/../h/List.hpp ****         Elem* elem = head;
 345              		.loc 2 86 9
 346 01c8 630E0504 		beqz	a0,.L20
 347              	.LVL31:
  88:src/../h/../h/List.hpp ****         if(!head) {
 348              		.loc 2 88 22
 349 01cc 03378500 		ld	a4,8(a0)
  88:src/../h/../h/List.hpp ****         if(!head) {
 350              		.loc 2 88 9
 351 01d0 23B8E700 		sd	a4,16(a5)
  89:src/../h/../h/List.hpp ****             tail = 0;
 352              		.loc 2 89 9
 353 01d4 63040704 		beqz	a4,.L22
 354              	.L18:
  92:src/../h/../h/List.hpp ****         delete elem;
 355              		.loc 2 92 12
 356 01d8 03390500 		ld	s2,0(a0)
 357              	.LVL32:
 358              	.LBB72:
 359              	.LBB73:
  28:src/../h/../h/List.hpp ****         }
 360              		.loc 2 28 43
 361 01dc 97000000 		call	_ZN15MemoryAllocator13deallocateMEMEPv@plt
 361      E7800000 
 362              	.LVL33:
 363              	.LBE73:
 364              	.LBE72:
  94:src/../h/../h/List.hpp ****         return ret;
 365              		.loc 2 94 9
 366 01e4 83A70401 		lw	a5,16(s1)
 367 01e8 9B87F7FF 		addiw	a5,a5,-1
 368 01ec 23A8F400 		sw	a5,16(s1)
 369              	.LVL34:
 370              	.L17:
 371              	.LBE71:
 372              	.LBE70:
  20:src/Sem.cpp   ****     if(t) {
 373              		.loc 1 20 5 is_stmt 1
 374 01f0 630A0900 		beqz	s2,.L16
  21:src/Sem.cpp   ****         t->isBlocked = false;
 375              		.loc 1 21 9
 376              		.loc 1 21 22 is_stmt 0
 377 01f4 23080902 		sb	zero,48(s2)
  22:src/Sem.cpp   ****         Scheduler::put(t);
 378              		.loc 1 22 9 is_stmt 1
 379              		.loc 1 22 23 is_stmt 0
 380 01f8 13050900 		mv	a0,s2
 381 01fc 97000000 		call	_ZN9Scheduler3putEP3PCB@plt
 381      E7800000 
 382              	.LVL35:
 383              	.L16:
  23:src/Sem.cpp   ****     }
  24:src/Sem.cpp   **** }
 384              		.loc 1 24 1
 385 0204 83308101 		ld	ra,24(sp)
 386              		.cfi_remember_state
GAS LISTING /tmp/ccZUPCwV.s 			page 11


 387              		.cfi_restore 1
 388 0208 03340101 		ld	s0,16(sp)
 389              		.cfi_restore 8
 390              		.cfi_def_cfa 2, 32
 391 020c 83348100 		ld	s1,8(sp)
 392              		.cfi_restore 9
 393              	.LVL36:
 394 0210 03390100 		ld	s2,0(sp)
 395              		.cfi_restore 18
 396              	.LVL37:
 397 0214 13010102 		addi	sp,sp,32
 398              		.cfi_def_cfa_offset 0
 399 0218 67800000 		jr	ra
 400              	.LVL38:
 401              	.L22:
 402              		.cfi_restore_state
 403              	.LBB75:
 404              	.LBB74:
  90:src/../h/../h/List.hpp ****         }
 405              		.loc 2 90 13
 406 021c 23B40400 		sd	zero,8(s1)
 407 0220 6FF09FFB 		j	.L18
 408              	.LVL39:
 409              	.L20:
  86:src/../h/../h/List.hpp ****         Elem* elem = head;
 410              		.loc 2 86 26
 411 0224 13090500 		mv	s2,a0
 412 0228 6FF09FFC 		j	.L17
 413              	.LBE74:
 414              	.LBE75:
 415              		.cfi_endproc
 416              	.LFE42:
 418              		.align	2
 419              		.globl	_ZN3Sem7openSEMEi
 421              	_ZN3Sem7openSEMEi:
 422              	.LFB43:
  25:src/Sem.cpp   **** 
  26:src/Sem.cpp   **** Sem* Sem::openSEM(int init) {
 423              		.loc 1 26 29 is_stmt 1
 424              		.cfi_startproc
 425              	.LVL40:
 426 022c 130101FE 		addi	sp,sp,-32
 427              		.cfi_def_cfa_offset 32
 428 0230 233C1100 		sd	ra,24(sp)
 429 0234 23388100 		sd	s0,16(sp)
 430 0238 23349100 		sd	s1,8(sp)
 431              		.cfi_offset 1, -8
 432              		.cfi_offset 8, -16
 433              		.cfi_offset 9, -24
 434 023c 13040102 		addi	s0,sp,32
 435              		.cfi_def_cfa 8, 0
 436 0240 93040500 		mv	s1,a0
  27:src/Sem.cpp   ****     return new Sem(init);
 437              		.loc 1 27 5
 438              	.LVL41:
 439              	.LBB76:
 440              	.LBB77:
GAS LISTING /tmp/ccZUPCwV.s 			page 12


  13:src/../h/Sem.hpp ****         if((n + sizeof(void*) + sizeof(uint64)) % MEM_BLOCK_SIZE > 0) numOfBlocks++;
 441              		.loc 3 13 9
  14:src/../h/Sem.hpp ****         return MemoryAllocator::allocateMEM(numOfBlocks);
 442              		.loc 3 14 9
  14:src/../h/Sem.hpp ****         return MemoryAllocator::allocateMEM(numOfBlocks);
 443              		.loc 3 14 71
  15:src/../h/Sem.hpp ****     }
 444              		.loc 3 15 9
  15:src/../h/Sem.hpp ****     }
 445              		.loc 3 15 44 is_stmt 0
 446 0244 13051000 		li	a0,1
 447              	.LVL42:
 448 0248 97000000 		call	_ZN15MemoryAllocator11allocateMEMEm@plt
 448      E7800000 
 449              	.LVL43:
 450              	.LBE77:
 451              	.LBE76:
 452              	.LBB78:
 453              	.LBB79:
  26:src/../h/Sem.hpp ****     }
  27:src/../h/Sem.hpp **** 
  28:src/../h/Sem.hpp ****     void operator delete[](void *p)  {
  29:src/../h/Sem.hpp ****         MemoryAllocator::deallocateMEM(p);
  30:src/../h/Sem.hpp ****     }
  31:src/../h/Sem.hpp **** 
  32:src/../h/Sem.hpp ****     virtual ~Sem();
  33:src/../h/Sem.hpp **** 
  34:src/../h/Sem.hpp ****     static Sem* openSEM(int init = 1);
  35:src/../h/Sem.hpp **** 
  36:src/../h/Sem.hpp ****     int closeSEM();
  37:src/../h/Sem.hpp **** 
  38:src/../h/Sem.hpp ****     int waitSEM();
  39:src/../h/Sem.hpp **** 
  40:src/../h/Sem.hpp ****     int signalSEM();
  41:src/../h/Sem.hpp **** 
  42:src/../h/Sem.hpp ****     int value() const { return val; }
  43:src/../h/Sem.hpp **** 
  44:src/../h/Sem.hpp **** protected:
  45:src/../h/Sem.hpp **** 
  46:src/../h/Sem.hpp ****     void block();
  47:src/../h/Sem.hpp **** 
  48:src/../h/Sem.hpp ****     void unblock();
  49:src/../h/Sem.hpp **** 
  50:src/../h/Sem.hpp **** private:
  51:src/../h/Sem.hpp **** 
  52:src/../h/Sem.hpp ****     explicit Sem(int init = 1) : val(init) {}
 454              		.loc 3 52 42
 455 0250 17070000 		lla	a4,_ZTV3Sem+16
 455      13070700 
 456 0258 2330E500 		sd	a4,0(a0)
 457 025c 23249500 		sw	s1,8(a0)
 458              	.LVL44:
 459              	.LBB80:
 460              	.LBB81:
  63:src/../h/../h/List.hpp ****     List(const List<T> &) = delete;
 461              		.loc 2 63 40
 462 0260 23380500 		sd	zero,16(a0)
GAS LISTING /tmp/ccZUPCwV.s 			page 13


 463 0264 233C0500 		sd	zero,24(a0)
 464 0268 23200502 		sw	zero,32(a0)
 465              	.LVL45:
 466              	.LBE81:
 467              	.LBE80:
 468              	.LBE79:
 469              	.LBE78:
  28:src/Sem.cpp   **** }
 470              		.loc 1 28 1
 471 026c 83308101 		ld	ra,24(sp)
 472              		.cfi_restore 1
 473 0270 03340101 		ld	s0,16(sp)
 474              		.cfi_restore 8
 475              		.cfi_def_cfa 2, 32
 476 0274 83348100 		ld	s1,8(sp)
 477              		.cfi_restore 9
 478 0278 13010102 		addi	sp,sp,32
 479              		.cfi_def_cfa_offset 0
 480 027c 67800000 		jr	ra
 481              		.cfi_endproc
 482              	.LFE43:
 484              		.align	2
 485              		.globl	_ZN3Sem8closeSEMEv
 487              	_ZN3Sem8closeSEMEv:
 488              	.LFB44:
  29:src/Sem.cpp   **** 
  30:src/Sem.cpp   **** int Sem::closeSEM() {
 489              		.loc 1 30 21 is_stmt 1
 490              		.cfi_startproc
 491              	.LVL46:
 492 0280 130101FF 		addi	sp,sp,-16
 493              		.cfi_def_cfa_offset 16
 494 0284 23341100 		sd	ra,8(sp)
 495 0288 23308100 		sd	s0,0(sp)
 496              		.cfi_offset 1, -8
 497              		.cfi_offset 8, -16
 498 028c 13040101 		addi	s0,sp,16
 499              		.cfi_def_cfa 8, 0
  31:src/Sem.cpp   ****     delete this;
 500              		.loc 1 31 5
 501              		.loc 1 31 12 is_stmt 0
 502 0290 83370500 		ld	a5,0(a0)
 503 0294 83B78700 		ld	a5,8(a5)
 504 0298 E7800700 		jalr	a5
 505              	.LVL47:
  32:src/Sem.cpp   ****     return 0;
 506              		.loc 1 32 5 is_stmt 1
  33:src/Sem.cpp   **** }
 507              		.loc 1 33 1 is_stmt 0
 508 029c 13050000 		li	a0,0
 509 02a0 83308100 		ld	ra,8(sp)
 510              		.cfi_restore 1
 511 02a4 03340100 		ld	s0,0(sp)
 512              		.cfi_restore 8
 513              		.cfi_def_cfa 2, 16
 514 02a8 13010101 		addi	sp,sp,16
 515              		.cfi_def_cfa_offset 0
GAS LISTING /tmp/ccZUPCwV.s 			page 14


 516 02ac 67800000 		jr	ra
 517              		.cfi_endproc
 518              	.LFE44:
 520              		.align	2
 521              		.globl	_ZN3Sem7waitSEMEv
 523              	_ZN3Sem7waitSEMEv:
 524              	.LFB45:
  34:src/Sem.cpp   **** 
  35:src/Sem.cpp   **** int Sem::waitSEM() {
 525              		.loc 1 35 20 is_stmt 1
 526              		.cfi_startproc
 527              	.LVL48:
  36:src/Sem.cpp   ****     if(--val < 0) block();
 528              		.loc 1 36 5
 529              		.loc 1 36 10 is_stmt 0
 530 02b0 83278500 		lw	a5,8(a0)
 531              		.loc 1 36 8
 532 02b4 9B87F7FF 		addiw	a5,a5,-1
 533              		.loc 1 36 14
 534 02b8 2324F500 		sw	a5,8(a0)
 535              		.loc 1 36 5
 536 02bc 13970702 		slli	a4,a5,32
 537 02c0 63400702 		bltz	a4,.L38
  37:src/Sem.cpp   ****     if(PCB::running->isBlocked) return -1;
 538              		.loc 1 37 5 is_stmt 1
 539              		.loc 1 37 22 is_stmt 0
 540 02c4 97070000 		la	a5,_ZN3PCB7runningE
 540      83B70700 
 541 02cc 83B70700 		ld	a5,0(a5)
 542 02d0 83C70703 		lbu	a5,48(a5)
 543              		.loc 1 37 5
 544 02d4 639A0704 		bnez	a5,.L33
  38:src/Sem.cpp   ****     return 0;
 545              		.loc 1 38 12
 546 02d8 13050000 		li	a0,0
 547              	.LVL49:
 548 02dc 67800000 		ret
 549              	.LVL50:
 550              	.L38:
  35:src/Sem.cpp   ****     if(--val < 0) block();
 551              		.loc 1 35 20 discriminator 1
 552 02e0 130101FF 		addi	sp,sp,-16
 553              		.cfi_def_cfa_offset 16
 554 02e4 23341100 		sd	ra,8(sp)
 555 02e8 23308100 		sd	s0,0(sp)
 556              		.cfi_offset 1, -8
 557              		.cfi_offset 8, -16
 558 02ec 13040101 		addi	s0,sp,16
 559              		.cfi_def_cfa 8, 0
  36:src/Sem.cpp   ****     if(PCB::running->isBlocked) return -1;
 560              		.loc 1 36 19 is_stmt 1 discriminator 1
  36:src/Sem.cpp   ****     if(PCB::running->isBlocked) return -1;
 561              		.loc 1 36 24 is_stmt 0 discriminator 1
 562 02f0 97000000 		call	_ZN3Sem5blockEv
 562      E7800000 
 563              	.LVL51:
  37:src/Sem.cpp   ****     return 0;
GAS LISTING /tmp/ccZUPCwV.s 			page 15


 564              		.loc 1 37 5 is_stmt 1 discriminator 1
  37:src/Sem.cpp   ****     return 0;
 565              		.loc 1 37 22 is_stmt 0 discriminator 1
 566 02f8 97070000 		la	a5,_ZN3PCB7runningE
 566      83B70700 
 567 0300 83B70700 		ld	a5,0(a5)
 568 0304 83C70703 		lbu	a5,48(a5)
  37:src/Sem.cpp   ****     return 0;
 569              		.loc 1 37 5 discriminator 1
 570 0308 639C0700 		bnez	a5,.L30
 571              		.loc 1 38 12
 572 030c 13050000 		li	a0,0
 573              	.L29:
  39:src/Sem.cpp   **** }
 574              		.loc 1 39 1
 575 0310 83308100 		ld	ra,8(sp)
 576              		.cfi_remember_state
 577              		.cfi_restore 1
 578 0314 03340100 		ld	s0,0(sp)
 579              		.cfi_restore 8
 580              		.cfi_def_cfa 2, 16
 581 0318 13010101 		addi	sp,sp,16
 582              		.cfi_def_cfa_offset 0
 583 031c 67800000 		jr	ra
 584              	.L30:
 585              		.cfi_restore_state
  37:src/Sem.cpp   ****     return 0;
 586              		.loc 1 37 41
 587 0320 1305F0FF 		li	a0,-1
 588 0324 6FF0DFFE 		j	.L29
 589              	.LVL52:
 590              	.L33:
 591              		.cfi_def_cfa_register 2
 592              		.cfi_restore 1
 593              		.cfi_restore 8
 594 0328 1305F0FF 		li	a0,-1
 595              	.LVL53:
 596              		.loc 1 39 1
 597 032c 67800000 		ret
 598              		.cfi_endproc
 599              	.LFE45:
 601              		.align	2
 602              		.globl	_ZN3Sem9signalSEMEv
 604              	_ZN3Sem9signalSEMEv:
 605              	.LFB46:
  40:src/Sem.cpp   **** 
  41:src/Sem.cpp   **** int Sem::signalSEM() {
 606              		.loc 1 41 22 is_stmt 1
 607              		.cfi_startproc
 608              	.LVL54:
  42:src/Sem.cpp   ****     if(++val <= 0) unblock();
 609              		.loc 1 42 5
 610              		.loc 1 42 10 is_stmt 0
 611 0330 83278500 		lw	a5,8(a0)
 612              		.loc 1 42 8
 613 0334 9B871700 		addiw	a5,a5,1
 614 0338 1B870700 		sext.w	a4,a5
GAS LISTING /tmp/ccZUPCwV.s 			page 16


 615              		.loc 1 42 14
 616 033c 2324F500 		sw	a5,8(a0)
 617              		.loc 1 42 5
 618 0340 6356E000 		blez	a4,.L45
  43:src/Sem.cpp   ****     return 0;
 619              		.loc 1 43 5 is_stmt 1
  44:src/Sem.cpp   **** }...
 620              		.loc 1 44 1 is_stmt 0
 621 0344 13050000 		li	a0,0
 622              	.LVL55:
 623 0348 67800000 		ret
 624              	.LVL56:
 625              	.L45:
  41:src/Sem.cpp   **** int Sem::signalSEM() {
 626              		.loc 1 41 22 discriminator 1
 627 034c 130101FF 		addi	sp,sp,-16
 628              		.cfi_def_cfa_offset 16
 629 0350 23341100 		sd	ra,8(sp)
 630 0354 23308100 		sd	s0,0(sp)
 631              		.cfi_offset 1, -8
 632              		.cfi_offset 8, -16
 633 0358 13040101 		addi	s0,sp,16
 634              		.cfi_def_cfa 8, 0
  42:src/Sem.cpp   ****     if(++val <= 0) unblock();
 635              		.loc 1 42 20 is_stmt 1 discriminator 1
  42:src/Sem.cpp   ****     if(++val <= 0) unblock();
 636              		.loc 1 42 27 is_stmt 0 discriminator 1
 637 035c 97000000 		call	_ZN3Sem7unblockEv
 637      E7800000 
 638              	.LVL57:
  43:src/Sem.cpp   ****     return 0;
 639              		.loc 1 43 5 is_stmt 1 discriminator 1
 640              		.loc 1 44 1 is_stmt 0 discriminator 1
 641 0364 13050000 		li	a0,0
 642 0368 83308100 		ld	ra,8(sp)
 643              		.cfi_restore 1
 644 036c 03340100 		ld	s0,0(sp)
 645              		.cfi_restore 8
 646              		.cfi_def_cfa 2, 16
 647 0370 13010101 		addi	sp,sp,16
 648              		.cfi_def_cfa_offset 0
 649 0374 67800000 		jr	ra
 650              		.cfi_endproc
 651              	.LFE46:
 653              		.weak	_ZTV3Sem
 654              		.section	.data.rel.ro.local._ZTV3Sem,"awG",@progbits,_ZTV3Sem,comdat
 655              		.align	3
 658              	_ZTV3Sem:
 659 0000 00000000 		.dword	0
 659      00000000 
 660 0008 00000000 		.dword	0
 660      00000000 
 661 0010 00000000 		.dword	_ZN3SemD1Ev
 661      00000000 
 662 0018 00000000 		.dword	_ZN3SemD0Ev
 662      00000000 
 663              		.text
GAS LISTING /tmp/ccZUPCwV.s 			page 17


 664              	.Letext0:
 665              		.file 4 "src/../h/../h/../h/../lib/hw.h"
 666              		.file 5 "src/../h/../h/../h/../h/MemoryAllocator.hpp"
 667              		.file 6 "src/../h/../h/../h/PCB.hpp"
 668              		.file 7 "src/../h/../h/Scheduler.hpp"
 4416              		.align	3
 4419              	DW.ref.__gxx_personality_v0:
 4420 0000 00000000 		.dword	__gxx_personality_v0
 4420      00000000 
 4421              		.ident	"GCC: (Ubuntu 9.4.0-1ubuntu1~20.04) 9.4.0"
 4422              		.section	.note.GNU-stack,"",@progbits
GAS LISTING /tmp/ccZUPCwV.s 			page 18

